target datalayout = "e-m:e-p270:32:32-p271:32:32-p272:64:64-i64:64-i128:128-f80:128-n8:16:32:64-S128"
target triple = "x86_64-pc-linux-gnu"

%struct.Hop_Man_t_ = type { ptr, ptr, ptr, ptr, %struct.Hop_Obj_t_, [6 x i32], i32, i32, ptr, i32, ptr, i32, i32, i32, ptr, ptr, ptr, i64, i64 }
%struct.Hop_Obj_t_ = type { %union.anon, %union.anon.0, ptr, ptr, i32, i32 }
%union.anon = type { ptr }
%union.anon.0 = type { ptr }
%struct.Vec_Ptr_t_ = type { i32, i32, ptr }

; Function Attrs: inlinehint nounwind uwtable
define internal void @Vec_PtrGrow(ptr noundef %0, i32 noundef %1) #1 {
  %3 = alloca ptr, align 8
  %4 = alloca i32, align 4
  store ptr %0, ptr %3, align 8, !tbaa !18
  store i32 %1, ptr %4, align 4, !tbaa !17
  %5 = load ptr, ptr %3, align 8, !tbaa !18
  %6 = getelementptr inbounds nuw %struct.Vec_Ptr_t_, ptr %5, i32 0, i32 0
  %7 = load i32, ptr %6, align 8, !tbaa !21
  %8 = load i32, ptr %4, align 4, !tbaa !17
  %9 = icmp sge i32 %7, %8
  br i1 %9, label %10, label %11

10:                                               ; preds = %2
  br label %36

11:                                               ; preds = %2
  %12 = load ptr, ptr %3, align 8, !tbaa !18
  %13 = getelementptr inbounds nuw %struct.Vec_Ptr_t_, ptr %12, i32 0, i32 2
  %14 = load ptr, ptr %13, align 8, !tbaa !22
  %15 = icmp ne ptr %14, null
  br i1 %15, label %16, label %24

16:                                               ; preds = %11
  %17 = load ptr, ptr %3, align 8, !tbaa !18
  %18 = getelementptr inbounds nuw %struct.Vec_Ptr_t_, ptr %17, i32 0, i32 2
  %19 = load ptr, ptr %18, align 8, !tbaa !22
  %20 = load i32, ptr %4, align 4, !tbaa !17
  %21 = sext i32 %20 to i64
  %22 = mul i64 8, %21
  %23 = call ptr @realloc(ptr noundef %19, i64 noundef %22) #8
  br label %29

24:                                               ; preds = %11
  %25 = load i32, ptr %4, align 4, !tbaa !17
  %26 = sext i32 %25 to i64
  %27 = mul i64 8, %26
  %28 = call noalias ptr @malloc(i64 noundef %27) #7
  br label %29

29:                                               ; preds = %24, %16
  %30 = phi ptr [ %23, %16 ], [ %28, %24 ]
  %31 = load ptr, ptr %3, align 8, !tbaa !18
  %32 = getelementptr inbounds nuw %struct.Vec_Ptr_t_, ptr %31, i32 0, i32 2
  store ptr %30, ptr %32, align 8, !tbaa !22
  %33 = load i32, ptr %4, align 4, !tbaa !17
  %34 = load ptr, ptr %3, align 8, !tbaa !18
  %35 = getelementptr inbounds nuw %struct.Vec_Ptr_t_, ptr %34, i32 0, i32 0
  store i32 %33, ptr %35, align 8, !tbaa !21
  br label %36

36:                                               ; preds = %29, %10
  ret void
}

; Function Attrs: inlinehint nounwind uwtable
define internal void @Vec_PtrPush(ptr noundef %0, ptr noundef %1) #1 {
  %3 = alloca ptr, align 8
  %4 = alloca ptr, align 8
  store ptr %0, ptr %3, align 8, !tbaa !18
  store ptr %1, ptr %4, align 8, !tbaa !23
  %5 = load ptr, ptr %3, align 8, !tbaa !18
  %6 = getelementptr inbounds nuw %struct.Vec_Ptr_t_, ptr %5, i32 0, i32 1
  %7 = load i32, ptr %6, align 4, !tbaa !19
  %8 = load ptr, ptr %3, align 8, !tbaa !18
  %9 = getelementptr inbounds nuw %struct.Vec_Ptr_t_, ptr %8, i32 0, i32 0
  %10 = load i32, ptr %9, align 8, !tbaa !21
  %11 = icmp eq i32 %7, %10
  br i1 %11, label %12, label %26

12:                                               ; preds = %2
  %13 = load ptr, ptr %3, align 8, !tbaa !18
  %14 = getelementptr inbounds nuw %struct.Vec_Ptr_t_, ptr %13, i32 0, i32 0
  %15 = load i32, ptr %14, align 8, !tbaa !21
  %16 = icmp slt i32 %15, 16
  br i1 %16, label %17, label %19

17:                                               ; preds = %12
  %18 = load ptr, ptr %3, align 8, !tbaa !18
  call void @Vec_PtrGrow(ptr noundef %18, i32 noundef 16)
  br label %25

19:                                               ; preds = %12
  %20 = load ptr, ptr %3, align 8, !tbaa !18
  %21 = load ptr, ptr %3, align 8, !tbaa !18
  %22 = getelementptr inbounds nuw %struct.Vec_Ptr_t_, ptr %21, i32 0, i32 0
  %23 = load i32, ptr %22, align 8, !tbaa !21
  %24 = mul nsw i32 2, %23
  call void @Vec_PtrGrow(ptr noundef %20, i32 noundef %24)
  br label %25

25:                                               ; preds = %19, %17
  br label %26

26:                                               ; preds = %25, %2
  %27 = load ptr, ptr %4, align 8, !tbaa !23
  %28 = load ptr, ptr %3, align 8, !tbaa !18
  %29 = getelementptr inbounds nuw %struct.Vec_Ptr_t_, ptr %28, i32 0, i32 2
  %30 = load ptr, ptr %29, align 8, !tbaa !22
  %31 = load ptr, ptr %3, align 8, !tbaa !18
  %32 = getelementptr inbounds nuw %struct.Vec_Ptr_t_, ptr %31, i32 0, i32 1
  %33 = load i32, ptr %32, align 4, !tbaa !19
  %34 = add nsw i32 %33, 1
  store i32 %34, ptr %32, align 4, !tbaa !19
  %35 = sext i32 %33 to i64
  %36 = getelementptr inbounds ptr, ptr %30, i64 %35
  store ptr %27, ptr %36, align 8, !tbaa !23
  ret void
}

; Function Attrs: nounwind uwtable
define void @Hop_ManAddMemory(ptr noundef %0) #0 {
  %2 = alloca ptr, align 8
  %3 = alloca ptr, align 8
  %4 = alloca i32, align 4
  %5 = alloca i32, align 4
  store ptr %0, ptr %2, align 8, !tbaa !3
  call void @llvm.lifetime.start.p0(i64 8, ptr %3) #6
  call void @llvm.lifetime.start.p0(i64 4, ptr %4) #6
  call void @llvm.lifetime.start.p0(i64 4, ptr %5) #6
  store i32 163904, ptr %5, align 4, !tbaa !17
  %6 = load i32, ptr %5, align 4, !tbaa !17
  %7 = sext i32 %6 to i64
  %8 = mul i64 1, %7
  %9 = call noalias ptr @malloc(i64 noundef %8) #7
  store ptr %9, ptr %3, align 8, !tbaa !27
  %10 = load ptr, ptr %2, align 8, !tbaa !3
  %11 = getelementptr inbounds nuw %struct.Hop_Man_t_, ptr %10, i32 0, i32 14
  %12 = load ptr, ptr %11, align 8, !tbaa !8
  %13 = load ptr, ptr %3, align 8, !tbaa !27
  call void @Vec_PtrPush(ptr noundef %12, ptr noundef %13)
  %14 = load ptr, ptr %3, align 8, !tbaa !27
  %15 = getelementptr inbounds i8, ptr %14, i64 64
  %16 = load ptr, ptr %3, align 8, !tbaa !27
  %17 = ptrtoint ptr %16 to i64
  %18 = trunc i64 %17 to i32
  %19 = and i32 %18, 63
  %20 = sext i32 %19 to i64
  %21 = sub i64 0, %20
  %22 = getelementptr inbounds i8, ptr %15, i64 %21
  store ptr %22, ptr %3, align 8, !tbaa !27
  %23 = load ptr, ptr %2, align 8, !tbaa !3
  %24 = getelementptr inbounds nuw %struct.Hop_Man_t_, ptr %23, i32 0, i32 15
  %25 = load ptr, ptr %24, align 8, !tbaa !16
  %26 = load ptr, ptr %3, align 8, !tbaa !27
  call void @Vec_PtrPush(ptr noundef %25, ptr noundef %26)
  %27 = load ptr, ptr %3, align 8, !tbaa !27
  %28 = load ptr, ptr %2, align 8, !tbaa !3
  %29 = getelementptr inbounds nuw %struct.Hop_Man_t_, ptr %28, i32 0, i32 16
  store ptr %27, ptr %29, align 8, !tbaa !26
  store i32 1, ptr %4, align 4, !tbaa !17
  br label %30

30:                                               ; preds = %39, %1
  %31 = load i32, ptr %4, align 4, !tbaa !17
  %32 = icmp sle i32 %31, 4095
  br i1 %32, label %33, label %42

33:                                               ; preds = %30
  %34 = load ptr, ptr %3, align 8, !tbaa !27
  %35 = getelementptr inbounds nuw i8, ptr %34, i64 40
  %36 = load ptr, ptr %3, align 8, !tbaa !27
  store ptr %35, ptr %36, align 8, !tbaa !27
  %37 = load ptr, ptr %3, align 8, !tbaa !27
  %38 = getelementptr inbounds nuw i8, ptr %37, i64 40
  store ptr %38, ptr %3, align 8, !tbaa !27
  br label %39

39:                                               ; preds = %33
  %40 = load i32, ptr %4, align 4, !tbaa !17
  %41 = add nsw i32 %40, 1
  store i32 %41, ptr %4, align 4, !tbaa !17
  br label %30, !llvm.loop !29

42:                                               ; preds = %30
  %43 = load ptr, ptr %3, align 8, !tbaa !27
  store ptr null, ptr %43, align 8, !tbaa !27
  call void @llvm.lifetime.end.p0(i64 4, ptr %5) #6
  call void @llvm.lifetime.end.p0(i64 4, ptr %4) #6
  call void @llvm.lifetime.end.p0(i64 8, ptr %3) #6
  ret void
}