; Function Attrs: nounwind uwtable
define void @Hop_ManAddMemory(ptr noundef captures(none) initializes((160, 168)) %0) local_unnamed_addr #1 {
  %2 = tail call noalias dereferenceable_or_null(163904) ptr @malloc(i64 noundef 163904) #5
  %3 = getelementptr inbounds nuw i8, ptr %0, i64 144
  %4 = load ptr, ptr %3, align 8, !tbaa !11
  %5 = getelementptr inbounds nuw i8, ptr %4, i64 4
  %6 = load i32, ptr %5, align 4, !tbaa !3
  %7 = load i32, ptr %4, align 8, !tbaa !9
  %8 = icmp eq i32 %6, %7
  br i1 %8, label %9, label %.Vec_PtrGrow.exit11_crit_edge.i

.Vec_PtrGrow.exit11_crit_edge.i:                  ; preds = %1
  %.phi.trans.insert.i = getelementptr inbounds nuw i8, ptr %4, i64 8
  %.pre.i = load ptr, ptr %.phi.trans.insert.i, align 8, !tbaa !10
  br label %Vec_PtrPush.exit

9:                                                ; preds = %1
  %10 = icmp slt i32 %6, 16
  br i1 %10, label %11, label %19

11:                                               ; preds = %9
  %12 = getelementptr inbounds nuw i8, ptr %4, i64 8
  %13 = load ptr, ptr %12, align 8, !tbaa !10
  %.not9.i.i = icmp eq ptr %13, null
  br i1 %.not9.i.i, label %16, label %14

14:                                               ; preds = %11
  %15 = tail call dereferenceable_or_null(128) ptr @realloc(ptr noundef nonnull %13, i64 noundef 128) #7
  br label %Vec_PtrGrow.exit.i

16:                                               ; preds = %11
  %17 = tail call noalias dereferenceable_or_null(128) ptr @malloc(i64 noundef 128) #5
  br label %Vec_PtrGrow.exit.i

Vec_PtrGrow.exit.i:                               ; preds = %16, %14
  %18 = phi ptr [ %15, %14 ], [ %17, %16 ]
  store ptr %18, ptr %12, align 8, !tbaa !10
  store i32 16, ptr %4, align 8, !tbaa !9
  br label %Vec_PtrPush.exit

19:                                               ; preds = %9
  %20 = shl nuw nsw i32 %6, 1
  %21 = getelementptr inbounds nuw i8, ptr %4, i64 8
  %22 = load ptr, ptr %21, align 8, !tbaa !10
  %.not9.i10.i = icmp eq ptr %22, null
  %23 = zext nneg i32 %20 to i64
  %24 = shl nuw nsw i64 %23, 3
  br i1 %.not9.i10.i, label %27, label %25

25:                                               ; preds = %19
  %26 = tail call ptr @realloc(ptr noundef nonnull %22, i64 noundef %24) #7
  br label %29

27:                                               ; preds = %19
  %28 = tail call noalias ptr @malloc(i64 noundef %24) #5
  br label %29

29:                                               ; preds = %27, %25
  %30 = phi ptr [ %26, %25 ], [ %28, %27 ]
  store ptr %30, ptr %21, align 8, !tbaa !10
  store i32 %20, ptr %4, align 8, !tbaa !9
  br label %Vec_PtrPush.exit

Vec_PtrPush.exit:                                 ; preds = %.Vec_PtrGrow.exit11_crit_edge.i, %Vec_PtrGrow.exit.i, %29
  %31 = phi ptr [ %.pre.i, %.Vec_PtrGrow.exit11_crit_edge.i ], [ %30, %29 ], [ %18, %Vec_PtrGrow.exit.i ]
  %32 = load i32, ptr %5, align 4, !tbaa !3
  %33 = add nsw i32 %32, 1
  store i32 %33, ptr %5, align 4, !tbaa !3
  %34 = sext i32 %32 to i64
  %35 = getelementptr inbounds ptr, ptr %31, i64 %34
  store ptr %2, ptr %35, align 8, !tbaa !19
  %36 = getelementptr inbounds nuw i8, ptr %2, i64 64
  %37 = ptrtoint ptr %2 to i64
  %38 = and i64 %37, 63
  %39 = sub nsw i64 0, %38
  %40 = getelementptr inbounds i8, ptr %36, i64 %39
  %41 = getelementptr inbounds nuw i8, ptr %0, i64 152
  %42 = load ptr, ptr %41, align 8, !tbaa !18
  %43 = getelementptr inbounds nuw i8, ptr %42, i64 4
  %44 = load i32, ptr %43, align 4, !tbaa !3
  %45 = load i32, ptr %42, align 8, !tbaa !9
  %46 = icmp eq i32 %44, %45
  br i1 %46, label %47, label %.Vec_PtrGrow.exit11_crit_edge.i15

.Vec_PtrGrow.exit11_crit_edge.i15:                ; preds = %Vec_PtrPush.exit
  %.phi.trans.insert.i16 = getelementptr inbounds nuw i8, ptr %42, i64 8
  %.pre.i17 = load ptr, ptr %.phi.trans.insert.i16, align 8, !tbaa !10
  br label %Vec_PtrPush.exit21

47:                                               ; preds = %Vec_PtrPush.exit
  %48 = icmp slt i32 %44, 16
  br i1 %48, label %49, label %57

49:                                               ; preds = %47
  %50 = getelementptr inbounds nuw i8, ptr %42, i64 8
  %51 = load ptr, ptr %50, align 8, !tbaa !10
  %.not9.i.i19 = icmp eq ptr %51, null
  br i1 %.not9.i.i19, label %54, label %52

52:                                               ; preds = %49
  %53 = tail call dereferenceable_or_null(128) ptr @realloc(ptr noundef nonnull %51, i64 noundef 128) #7
  br label %Vec_PtrGrow.exit.i20

54:                                               ; preds = %49
  %55 = tail call noalias dereferenceable_or_null(128) ptr @malloc(i64 noundef 128) #5
  br label %Vec_PtrGrow.exit.i20

Vec_PtrGrow.exit.i20:                             ; preds = %54, %52
  %56 = phi ptr [ %53, %52 ], [ %55, %54 ]
  store ptr %56, ptr %50, align 8, !tbaa !10
  store i32 16, ptr %42, align 8, !tbaa !9
  br label %Vec_PtrPush.exit21

57:                                               ; preds = %47
  %58 = shl nuw nsw i32 %44, 1
  %59 = getelementptr inbounds nuw i8, ptr %42, i64 8
  %60 = load ptr, ptr %59, align 8, !tbaa !10
  %.not9.i10.i18 = icmp eq ptr %60, null
  %61 = zext nneg i32 %58 to i64
  %62 = shl nuw nsw i64 %61, 3
  br i1 %.not9.i10.i18, label %65, label %63

63:                                               ; preds = %57
  %64 = tail call ptr @realloc(ptr noundef nonnull %60, i64 noundef %62) #7
  br label %67

65:                                               ; preds = %57
  %66 = tail call noalias ptr @malloc(i64 noundef %62) #5
  br label %67

67:                                               ; preds = %65, %63
  %68 = phi ptr [ %64, %63 ], [ %66, %65 ]
  store ptr %68, ptr %59, align 8, !tbaa !10
  store i32 %58, ptr %42, align 8, !tbaa !9
  br label %Vec_PtrPush.exit21

Vec_PtrPush.exit21:                               ; preds = %.Vec_PtrGrow.exit11_crit_edge.i15, %Vec_PtrGrow.exit.i20, %67
  %69 = phi ptr [ %.pre.i17, %.Vec_PtrGrow.exit11_crit_edge.i15 ], [ %68, %67 ], [ %56, %Vec_PtrGrow.exit.i20 ]
  %70 = load i32, ptr %43, align 4, !tbaa !3
  %71 = add nsw i32 %70, 1
  store i32 %71, ptr %43, align 4, !tbaa !3
  %72 = sext i32 %70 to i64
  %73 = getelementptr inbounds ptr, ptr %69, i64 %72
  store ptr %40, ptr %73, align 8, !tbaa !19
  %74 = getelementptr inbounds nuw i8, ptr %0, i64 160
  store ptr %40, ptr %74, align 8, !tbaa !22
  br label %75

75:                                               ; preds = %Vec_PtrPush.exit21, %75
  %.023 = phi ptr [ %40, %Vec_PtrPush.exit21 ], [ %76, %75 ]
  %.01422 = phi i32 [ 1, %Vec_PtrPush.exit21 ], [ %77, %75 ]
  %76 = getelementptr inbounds nuw i8, ptr %.023, i64 40
  store ptr %76, ptr %.023, align 8, !tbaa !23
  %77 = add nuw nsw i32 %.01422, 1
  %exitcond.not = icmp eq i32 %77, 4096
  br i1 %exitcond.not, label %78, label %75, !llvm.loop !25

78:                                               ; preds = %75
  store ptr null, ptr %76, align 8, !tbaa !23
  ret void
}